target datalayout = "e-m:e-p270:32:32-p271:32:32-p272:64:64-i64:64-i128:128-f80:128-n8:16:32:64-S128"
target triple = "x86_64-pc-linux-gnu"

%union.BitPatternConversion = type { i64 }

@_ZL4gInf = internal constant %union.BitPatternConversion { i64 9218868437227405312 }, align 8
@_ZL4gNan = internal constant %union.BitPatternConversion { i64 9221120237041090560 }, align 8

; Function Attrs: mustprogress nounwind uwtable
define internal noundef signext i8 @_ZL9u_signBitd(double noundef %0) #0 {
  %2 = alloca double, align 8
  %3 = alloca i8, align 1
  store double %0, ptr %2, align 8, !tbaa !26
  call void @llvm.lifetime.start.p0(i64 1, ptr %3) #14
  %4 = getelementptr inbounds nuw i8, ptr %2, i64 8
  %5 = getelementptr inbounds i8, ptr %4, i64 -1
  %6 = load i8, ptr %5, align 1, !tbaa !28
  store i8 %6, ptr %3, align 1, !tbaa !28
  %7 = load i8, ptr %3, align 1, !tbaa !28
  %8 = zext i8 %7 to i32
  %9 = and i32 %8, 128
  %10 = icmp ne i32 %9, 0
  %11 = zext i1 %10 to i8
  call void @llvm.lifetime.end.p0(i64 1, ptr %3) #14
  ret i8 %11
}

; Function Attrs: mustprogress nounwind uwtable
define double @uprv_getInfinity_77() #0 {
  %1 = load double, ptr @_ZL4gInf, align 8, !tbaa !28
  ret double %1
}

; Function Attrs: mustprogress nounwind uwtable
define signext i8 @uprv_isInfinite_77(double noundef %0) #0 {
  %2 = alloca double, align 8
  %3 = alloca %union.BitPatternConversion, align 8
  store double %0, ptr %2, align 8, !tbaa !26
  call void @llvm.lifetime.start.p0(i64 8, ptr %3) #14
  %4 = load double, ptr %2, align 8, !tbaa !26
  store double %4, ptr %3, align 8, !tbaa !28
  %5 = load i64, ptr %3, align 8, !tbaa !28
  %6 = and i64 %5, 9223372036854775807
  %7 = icmp eq i64 %6, 9218868437227405312
  %8 = zext i1 %7 to i8
  call void @llvm.lifetime.end.p0(i64 8, ptr %3) #14
  ret i8 %8
}

; Function Attrs: mustprogress nounwind uwtable
define double @uprv_getNaN_77() #0 {
  %1 = load double, ptr @_ZL4gNan, align 8, !tbaa !28
  ret double %1
}

; Function Attrs: mustprogress nounwind uwtable
define signext i8 @uprv_isNaN_77(double noundef %0) #0 {
  %2 = alloca double, align 8
  %3 = alloca %union.BitPatternConversion, align 8
  store double %0, ptr %2, align 8, !tbaa !26
  call void @llvm.lifetime.start.p0(i64 8, ptr %3) #14
  %4 = load double, ptr %2, align 8, !tbaa !26
  store double %4, ptr %3, align 8, !tbaa !28
  %5 = load i64, ptr %3, align 8, !tbaa !28
  %6 = and i64 %5, 9223372036854775807
  %7 = icmp sgt i64 %6, 9218868437227405312
  %8 = zext i1 %7 to i8
  call void @llvm.lifetime.end.p0(i64 8, ptr %3) #14
  ret i8 %8
}

; Function Attrs: mustprogress uwtable
define double @uprv_trunc_77(double noundef %0) #1 {
  %2 = alloca double, align 8
  %3 = alloca double, align 8
  store double %0, ptr %3, align 8, !tbaa !26
  %4 = load double, ptr %3, align 8, !tbaa !26
  %5 = call signext i8 @uprv_isNaN_77(double noundef %4)
  %6 = icmp ne i8 %5, 0
  br i1 %6, label %7, label %9

7:                                                ; preds = %1
  %8 = call double @uprv_getNaN_77()
  store double %8, ptr %2, align 8
  br label %25

9:                                                ; preds = %1
  %10 = load double, ptr %3, align 8, !tbaa !26
  %11 = call signext i8 @uprv_isInfinite_77(double noundef %10)
  %12 = icmp ne i8 %11, 0
  br i1 %12, label %13, label %15

13:                                               ; preds = %9
  %14 = call double @uprv_getInfinity_77()
  store double %14, ptr %2, align 8
  br label %25

15:                                               ; preds = %9
  %16 = load double, ptr %3, align 8, !tbaa !26
  %17 = call noundef signext i8 @_ZL9u_signBitd(double noundef %16)
  %18 = icmp ne i8 %17, 0
  br i1 %18, label %19, label %22

19:                                               ; preds = %15
  %20 = load double, ptr %3, align 8, !tbaa !26
  %21 = call double @llvm.ceil.f64(double %20)
  store double %21, ptr %2, align 8
  br label %25

22:                                               ; preds = %15
  %23 = load double, ptr %3, align 8, !tbaa !26
  %24 = call double @llvm.floor.f64(double %23)
  store double %24, ptr %2, align 8
  br label %25

25:                                               ; preds = %22, %19, %13, %7
  %26 = load double, ptr %2, align 8
  ret double %26
}