; Function Attrs: mustprogress nofree norecurse nosync nounwind willreturn memory(none) uwtable
define noundef double @uprv_trunc_77(double noundef %0) local_unnamed_addr #12 {
  %2 = tail call double @llvm.fabs.f64(double %0)
  %3 = bitcast double %2 to i64
  %4 = icmp samesign ult i64 %3, 9218868437227405313
  br i1 %4, label %5, label %13

5:                                                ; preds = %1
  %6 = fcmp une double %2, 0x7FF0000000000000
  br i1 %6, label %7, label %13

7:                                                ; preds = %5
  %8 = bitcast double %0 to i64
  %.not7 = icmp sgt i64 %8, -1
  br i1 %.not7, label %11, label %9

9:                                                ; preds = %7
  %10 = tail call double @llvm.ceil.f64(double %0)
  br label %13

11:                                               ; preds = %7
  %12 = tail call double @llvm.floor.f64(double %0)
  br label %13

13:                                               ; preds = %5, %1, %11, %9
  %.0 = phi double [ %10, %9 ], [ %12, %11 ], [ 0x7FF8000000000000, %1 ], [ 0x7FF0000000000000, %5 ]
  ret double %.0
}